target datalayout = "e-m:e-p270:32:32-p271:32:32-p272:64:64-i64:64-i128:128-f80:128-n8:16:32:64-S128"
target triple = "x86_64-pc-linux-gnu"

%struct.blf_params = type { ptr, ptr, ptr, i8, i8, ptr }
%struct.wtap_rec = type { i32, i32, i32, %struct.nstime_t, i32, %struct.nstime_t, i8, %union.anon, ptr, i8, %struct.Buffer, %struct.Buffer }
%struct.nstime_t = type { i64, i32 }
%union.anon = type { %struct.wtap_packet_header }
%struct.wtap_packet_header = type { i32, i32, i32, i32, %union.wtap_pseudo_header }
%union.wtap_pseudo_header = type { %struct.erf_mc_phdr }
%struct.erf_mc_phdr = type { %struct.erf_phdr, [16 x %struct.erf_ehdr], %union.anon.1 }
%struct.erf_phdr = type { i64, i8, i8, i16, i16, i16 }
%struct.erf_ehdr = type { i64 }
%union.anon.1 = type { i32 }
%struct.Buffer = type { ptr, i64, i64, i64 }
%struct.blf_linmessage2 = type { %struct.blf_lindatabytetimestampevent, [8 x i8], i16, i8, i8, i8, i8, i8, i8, i8, [3 x i8] }
%struct.blf_lindatabytetimestampevent = type { %struct.blf_linmessagedescriptor, [9 x i64] }
%struct.blf_linmessagedescriptor = type { %struct.blf_linsynchfieldevent, i16, i16, i8, i8, i8, i8 }
%struct.blf_linsynchfieldevent = type { %struct.blf_linbusevent, i64, i64 }
%struct.blf_linbusevent = type { i64, i32, i16, [2 x i8] }

@.str.78 = private unnamed_addr constant [62 x i8] c"blf: LIN_MESSAGE2: not enough bytes for linmessage2 in object\00", align 1

; Function Attrs: nounwind null_pointer_is_valid sspstrong uwtable
define internal void @fix_endianness_blf_linbusevent(ptr noundef %0) #0 {
  %2 = alloca ptr, align 8
  store ptr %0, ptr %2, align 8
  %3 = load ptr, ptr %2, align 8
  %4 = getelementptr inbounds nuw %struct.blf_linbusevent, ptr %3, i32 0, i32 0
  %5 = load i64, ptr %4, align 8
  %6 = load ptr, ptr %2, align 8
  %7 = getelementptr inbounds nuw %struct.blf_linbusevent, ptr %6, i32 0, i32 0
  store i64 %5, ptr %7, align 8
  %8 = load ptr, ptr %2, align 8
  %9 = getelementptr inbounds nuw %struct.blf_linbusevent, ptr %8, i32 0, i32 1
  %10 = load i32, ptr %9, align 8
  %11 = load ptr, ptr %2, align 8
  %12 = getelementptr inbounds nuw %struct.blf_linbusevent, ptr %11, i32 0, i32 1
  store i32 %10, ptr %12, align 8
  %13 = load ptr, ptr %2, align 8
  %14 = getelementptr inbounds nuw %struct.blf_linbusevent, ptr %13, i32 0, i32 2
  %15 = load i16, ptr %14, align 4
  %16 = load ptr, ptr %2, align 8
  %17 = getelementptr inbounds nuw %struct.blf_linbusevent, ptr %16, i32 0, i32 2
  store i16 %15, ptr %17, align 4
  ret void
}

; Function Attrs: null_pointer_is_valid sspstrong uwtable
define internal void @fix_endianness_blf_linsynchfieldevent(ptr noundef %0) #2 {
  %2 = alloca ptr, align 8
  store ptr %0, ptr %2, align 8
  %3 = load ptr, ptr %2, align 8
  %4 = getelementptr inbounds nuw %struct.blf_linsynchfieldevent, ptr %3, i32 0, i32 0
  call void @fix_endianness_blf_linbusevent(ptr noundef %4)
  %5 = load ptr, ptr %2, align 8
  %6 = getelementptr inbounds nuw %struct.blf_linsynchfieldevent, ptr %5, i32 0, i32 1
  %7 = load i64, ptr %6, align 8
  %8 = load ptr, ptr %2, align 8
  %9 = getelementptr inbounds nuw %struct.blf_linsynchfieldevent, ptr %8, i32 0, i32 1
  store i64 %7, ptr %9, align 8
  %10 = load ptr, ptr %2, align 8
  %11 = getelementptr inbounds nuw %struct.blf_linsynchfieldevent, ptr %10, i32 0, i32 2
  %12 = load i64, ptr %11, align 8
  %13 = load ptr, ptr %2, align 8
  %14 = getelementptr inbounds nuw %struct.blf_linsynchfieldevent, ptr %13, i32 0, i32 2
  store i64 %12, ptr %14, align 8
  ret void
}

; Function Attrs: null_pointer_is_valid sspstrong uwtable
define internal void @fix_endianness_blf_linmessagedescriptor(ptr noundef %0) #2 {
  %2 = alloca ptr, align 8
  store ptr %0, ptr %2, align 8
  %3 = load ptr, ptr %2, align 8
  %4 = getelementptr inbounds nuw %struct.blf_linmessagedescriptor, ptr %3, i32 0, i32 0
  call void @fix_endianness_blf_linsynchfieldevent(ptr noundef %4)
  %5 = load ptr, ptr %2, align 8
  %6 = getelementptr inbounds nuw %struct.blf_linmessagedescriptor, ptr %5, i32 0, i32 1
  %7 = load i16, ptr %6, align 8
  %8 = load ptr, ptr %2, align 8
  %9 = getelementptr inbounds nuw %struct.blf_linmessagedescriptor, ptr %8, i32 0, i32 1
  store i16 %7, ptr %9, align 8
  %10 = load ptr, ptr %2, align 8
  %11 = getelementptr inbounds nuw %struct.blf_linmessagedescriptor, ptr %10, i32 0, i32 2
  %12 = load i16, ptr %11, align 2
  %13 = load ptr, ptr %2, align 8
  %14 = getelementptr inbounds nuw %struct.blf_linmessagedescriptor, ptr %13, i32 0, i32 2
  store i16 %12, ptr %14, align 2
  ret void
}

; Function Attrs: null_pointer_is_valid sspstrong uwtable
define internal void @fix_endianness_blf_lindatabytetimestampevent(ptr noundef %0) #2 {
  %2 = alloca ptr, align 8
  %3 = alloca i32, align 4
  store ptr %0, ptr %2, align 8
  call void @llvm.lifetime.start.p0(i64 4, ptr %3) #13
  %4 = load ptr, ptr %2, align 8
  %5 = getelementptr inbounds nuw %struct.blf_lindatabytetimestampevent, ptr %4, i32 0, i32 0
  call void @fix_endianness_blf_linmessagedescriptor(ptr noundef %5)
  store i32 0, ptr %3, align 4
  br label %6

6:                                                ; preds = %21, %1
  %7 = load i32, ptr %3, align 4
  %8 = icmp slt i32 %7, 9
  br i1 %8, label %9, label %24

9:                                                ; preds = %6
  %10 = load ptr, ptr %2, align 8
  %11 = getelementptr inbounds nuw %struct.blf_lindatabytetimestampevent, ptr %10, i32 0, i32 1
  %12 = load i32, ptr %3, align 4
  %13 = sext i32 %12 to i64
  %14 = getelementptr [9 x i64], ptr %11, i64 0, i64 %13
  %15 = load i64, ptr %14, align 8
  %16 = load ptr, ptr %2, align 8
  %17 = getelementptr inbounds nuw %struct.blf_lindatabytetimestampevent, ptr %16, i32 0, i32 1
  %18 = load i32, ptr %3, align 4
  %19 = sext i32 %18 to i64
  %20 = getelementptr [9 x i64], ptr %17, i64 0, i64 %19
  store i64 %15, ptr %20, align 8
  br label %21

21:                                               ; preds = %9
  %22 = load i32, ptr %3, align 4
  %23 = add i32 %22, 1
  store i32 %23, ptr %3, align 4
  br label %6, !llvm.loop !15

24:                                               ; preds = %6
  call void @llvm.lifetime.end.p0(i64 4, ptr %3) #13
  ret void
}

; Function Attrs: null_pointer_is_valid sspstrong uwtable
define internal void @blf_add_direction_option(ptr noundef %0, i16 noundef zeroext %1) #2 {
  %3 = alloca ptr, align 8
  %4 = alloca i16, align 2
  %5 = alloca i32, align 4
  store ptr %0, ptr %3, align 8
  store i16 %1, ptr %4, align 2
  call void @llvm.lifetime.start.p0(i64 4, ptr %5) #13
  store i32 0, ptr %5, align 4
  %6 = load i16, ptr %4, align 2
  %7 = zext i16 %6 to i32
  switch i32 %7, label %10 [
    i32 0, label %8
    i32 1, label %9
    i32 2, label %9
  ]

8:                                                ; preds = %2
  store i32 1, ptr %5, align 4
  br label %10

9:                                                ; preds = %2, %2
  store i32 2, ptr %5, align 4
  br label %10

10:                                               ; preds = %2, %9, %8
  %11 = load ptr, ptr %3, align 8
  %12 = getelementptr inbounds nuw %struct.blf_params, ptr %11, i32 0, i32 1
  %13 = load ptr, ptr %12, align 8
  %14 = getelementptr inbounds nuw %struct.wtap_rec, ptr %13, i32 0, i32 8
  %15 = load ptr, ptr %14, align 8
  %16 = load i32, ptr %5, align 4
  %17 = call i32 @wtap_block_add_uint32_option(ptr noundef %15, i32 noundef 2, i32 noundef %16)
  call void @llvm.lifetime.end.p0(i64 4, ptr %5) #13
  ret void
}

; Function Attrs: null_pointer_is_valid sspstrong uwtable
define internal void @fix_endianness_blf_linmessage2(ptr noundef %0) #2 {
  %2 = alloca ptr, align 8
  store ptr %0, ptr %2, align 8
  %3 = load ptr, ptr %2, align 8
  %4 = getelementptr inbounds nuw %struct.blf_linmessage2, ptr %3, i32 0, i32 0
  call void @fix_endianness_blf_lindatabytetimestampevent(ptr noundef %4)
  %5 = load ptr, ptr %2, align 8
  %6 = getelementptr inbounds nuw %struct.blf_linmessage2, ptr %5, i32 0, i32 2
  %7 = load i16, ptr %6, align 8
  %8 = load ptr, ptr %2, align 8
  %9 = getelementptr inbounds nuw %struct.blf_linmessage2, ptr %8, i32 0, i32 2
  store i16 %7, ptr %9, align 8
  ret void
}

; Function Attrs: null_pointer_is_valid sspstrong uwtable
define internal zeroext i1 @blf_read_bytes(ptr noundef %0, i64 noundef %1, ptr noundef %2, i64 noundef %3, ptr noundef %4, ptr noundef %5) #2 {
  %7 = alloca i1, align 1
  %8 = alloca ptr, align 8
  %9 = alloca i64, align 8
  %10 = alloca ptr, align 8
  %11 = alloca i64, align 8
  %12 = alloca ptr, align 8
  %13 = alloca ptr, align 8
  store ptr %0, ptr %8, align 8
  store i64 %1, ptr %9, align 8
  store ptr %2, ptr %10, align 8
  store i64 %3, ptr %11, align 8
  store ptr %4, ptr %12, align 8
  store ptr %5, ptr %13, align 8
  %14 = load ptr, ptr %8, align 8
  %15 = load i64, ptr %9, align 8
  %16 = load ptr, ptr %10, align 8
  %17 = load i64, ptr %11, align 8
  %18 = load ptr, ptr %12, align 8
  %19 = load ptr, ptr %13, align 8
  %20 = call zeroext i1 @blf_read_bytes_or_eof(ptr noundef %14, i64 noundef %15, ptr noundef %16, i64 noundef %17, ptr noundef %18, ptr noundef %19)
  br i1 %20, label %28, label %21

21:                                               ; preds = %6
  %22 = load ptr, ptr %12, align 8
  %23 = load i32, ptr %22, align 4
  %24 = icmp eq i32 %23, 0
  br i1 %24, label %25, label %27

25:                                               ; preds = %21
  %26 = load ptr, ptr %12, align 8
  store i32 -12, ptr %26, align 4
  br label %27

27:                                               ; preds = %25, %21
  store i1 false, ptr %7, align 1
  br label %29

28:                                               ; preds = %6
  store i1 true, ptr %7, align 1
  br label %29

29:                                               ; preds = %28, %27
  %30 = load i1, ptr %7, align 1
  ret i1 %30
}

; Function Attrs: null_pointer_is_valid sspstrong uwtable
define internal zeroext i1 @blf_read_linmessage2(ptr noundef %0, ptr noundef %1, ptr noundef %2, i64 noundef %3, i64 noundef %4, i64 noundef %5, i32 noundef %6, i64 noundef %7, i16 noundef zeroext %8) #2 {
  %10 = alloca i1, align 1
  %11 = alloca ptr, align 8
  %12 = alloca ptr, align 8
  %13 = alloca ptr, align 8
  %14 = alloca i64, align 8
  %15 = alloca i64, align 8
  %16 = alloca i64, align 8
  %17 = alloca i32, align 4
  %18 = alloca i64, align 8
  %19 = alloca i16, align 2
  %20 = alloca %struct.blf_linmessage2, align 8
  %21 = alloca i8, align 1
  %22 = alloca i32, align 4
  %23 = alloca i32, align 4
  %24 = alloca [8 x i8], align 1
  store ptr %0, ptr %11, align 8
  store ptr %1, ptr %12, align 8
  store ptr %2, ptr %13, align 8
  store i64 %3, ptr %14, align 8
  store i64 %4, ptr %15, align 8
  store i64 %5, ptr %16, align 8
  store i32 %6, ptr %17, align 4
  store i64 %7, ptr %18, align 8
  store i16 %8, ptr %19, align 2
  call void @llvm.lifetime.start.p0(i64 136, ptr %20) #13
  call void @llvm.lifetime.start.p0(i64 1, ptr %21) #13
  call void @llvm.lifetime.start.p0(i64 4, ptr %22) #13
  %25 = load i64, ptr %16, align 8
  %26 = load i64, ptr %15, align 8
  %27 = load i64, ptr %14, align 8
  %28 = sub i64 %26, %27
  %29 = add i64 %28, 136
  %30 = icmp slt i64 %25, %29
  br i1 %30, label %31, label %38

31:                                               ; preds = %9
  %32 = load ptr, ptr %12, align 8
  store i32 -13, ptr %32, align 4
  %33 = call noalias ptr @wmem_strdup(ptr noundef null, ptr noundef @.str.78)
  %34 = load ptr, ptr %13, align 8
  store ptr %33, ptr %34, align 8
  br label %35

35:                                               ; preds = %31
  br label %36

36:                                               ; preds = %35
  br label %37

37:                                               ; preds = %36
  store i1 false, ptr %10, align 1
  store i32 1, ptr %23, align 4
  br label %159

38:                                               ; preds = %9
  %39 = load ptr, ptr %11, align 8
  %40 = load i64, ptr %15, align 8
  %41 = load ptr, ptr %12, align 8
  %42 = load ptr, ptr %13, align 8
  %43 = call zeroext i1 @blf_read_bytes(ptr noundef %39, i64 noundef %40, ptr noundef %20, i64 noundef 136, ptr noundef %41, ptr noundef %42)
  br i1 %43, label %48, label %44

44:                                               ; preds = %38
  br label %45

45:                                               ; preds = %44
  br label %46

46:                                               ; preds = %45
  br label %47

47:                                               ; preds = %46
  store i1 false, ptr %10, align 1
  store i32 1, ptr %23, align 4
  br label %159

48:                                               ; preds = %38
  call void @fix_endianness_blf_linmessage2(ptr noundef %20)
  %49 = getelementptr inbounds nuw %struct.blf_linmessage2, ptr %20, i32 0, i32 0
  %50 = getelementptr inbounds nuw %struct.blf_lindatabytetimestampevent, ptr %49, i32 0, i32 0
  %51 = getelementptr inbounds nuw %struct.blf_linmessagedescriptor, ptr %50, i32 0, i32 5
  %52 = load i8, ptr %51, align 2
  %53 = zext i8 %52 to i32
  %54 = and i32 %53, 15
  %55 = trunc i32 %54 to i8
  store i8 %55, ptr %51, align 2
  %56 = getelementptr inbounds nuw %struct.blf_linmessage2, ptr %20, i32 0, i32 0
  %57 = getelementptr inbounds nuw %struct.blf_lindatabytetimestampevent, ptr %56, i32 0, i32 0
  %58 = getelementptr inbounds nuw %struct.blf_linmessagedescriptor, ptr %57, i32 0, i32 4
  %59 = load i8, ptr %58, align 1
  %60 = zext i8 %59 to i32
  %61 = and i32 %60, 63
  %62 = trunc i32 %61 to i8
  store i8 %62, ptr %58, align 1
  %63 = getelementptr inbounds nuw %struct.blf_linmessage2, ptr %20, i32 0, i32 0
  %64 = getelementptr inbounds nuw %struct.blf_lindatabytetimestampevent, ptr %63, i32 0, i32 0
  %65 = getelementptr inbounds nuw %struct.blf_linmessagedescriptor, ptr %64, i32 0, i32 5
  %66 = load i8, ptr %65, align 2
  %67 = zext i8 %66 to i32
  %68 = icmp slt i32 %67, 8
  br i1 %68, label %69, label %75

69:                                               ; preds = %48
  %70 = getelementptr inbounds nuw %struct.blf_linmessage2, ptr %20, i32 0, i32 0
  %71 = getelementptr inbounds nuw %struct.blf_lindatabytetimestampevent, ptr %70, i32 0, i32 0
  %72 = getelementptr inbounds nuw %struct.blf_linmessagedescriptor, ptr %71, i32 0, i32 5
  %73 = load i8, ptr %72, align 2
  %74 = zext i8 %73 to i32
  br label %76

75:                                               ; preds = %48
  br label %76

76:                                               ; preds = %75, %69
  %77 = phi i32 [ %74, %69 ], [ 8, %75 ]
  %78 = trunc i32 %77 to i8
  store i8 %78, ptr %21, align 1
  call void @llvm.lifetime.start.p0(i64 8, ptr %24) #13
  %79 = getelementptr [8 x i8], ptr %24, i64 0, i64 0
  store i8 1, ptr %79, align 1
  %80 = getelementptr [8 x i8], ptr %24, i64 0, i64 1
  store i8 0, ptr %80, align 1
  %81 = getelementptr [8 x i8], ptr %24, i64 0, i64 2
  store i8 0, ptr %81, align 1
  %82 = getelementptr [8 x i8], ptr %24, i64 0, i64 3
  store i8 0, ptr %82, align 1
  %83 = getelementptr inbounds nuw %struct.blf_linmessage2, ptr %20, i32 0, i32 0
  %84 = getelementptr inbounds nuw %struct.blf_lindatabytetimestampevent, ptr %83, i32 0, i32 0
  %85 = getelementptr inbounds nuw %struct.blf_linmessagedescriptor, ptr %84, i32 0, i32 5
  %86 = load i8, ptr %85, align 2
  %87 = zext i8 %86 to i32
  %88 = shl i32 %87, 4
  %89 = trunc i32 %88 to i8
  %90 = getelementptr [8 x i8], ptr %24, i64 0, i64 4
  store i8 %89, ptr %90, align 1
  %91 = load i16, ptr %19, align 2
  %92 = zext i16 %91 to i32
  %93 = icmp sge i32 %92, 1
  br i1 %93, label %94, label %114

94:                                               ; preds = %76
  %95 = getelementptr inbounds nuw %struct.blf_linmessage2, ptr %20, i32 0, i32 0
  %96 = getelementptr inbounds nuw %struct.blf_lindatabytetimestampevent, ptr %95, i32 0, i32 0
  %97 = getelementptr inbounds nuw %struct.blf_linmessagedescriptor, ptr %96, i32 0, i32 6
  %98 = load i8, ptr %97, align 1
  %99 = zext i8 %98 to i32
  switch i32 %99, label %112 [
    i32 0, label %100
    i32 1, label %106
  ]

100:                                              ; preds = %94
  %101 = getelementptr [8 x i8], ptr %24, i64 0, i64 4
  %102 = load i8, ptr %101, align 1
  %103 = zext i8 %102 to i32
  %104 = or i32 %103, 1
  %105 = trunc i32 %104 to i8
  store i8 %105, ptr %101, align 1
  br label %113

106:                                              ; preds = %94
  %107 = getelementptr [8 x i8], ptr %24, i64 0, i64 4
  %108 = load i8, ptr %107, align 1
  %109 = zext i8 %108 to i32
  %110 = or i32 %109, 2
  %111 = trunc i32 %110 to i8
  store i8 %111, ptr %107, align 1
  br label %113

112:                                              ; preds = %94
  br label %113

113:                                              ; preds = %112, %106, %100
  br label %114

114:                                              ; preds = %113, %76
  %115 = getelementptr inbounds nuw %struct.blf_linmessage2, ptr %20, i32 0, i32 0
  %116 = getelementptr inbounds nuw %struct.blf_lindatabytetimestampevent, ptr %115, i32 0, i32 0
  %117 = getelementptr inbounds nuw %struct.blf_linmessagedescriptor, ptr %116, i32 0, i32 4
  %118 = load i8, ptr %117, align 1
  %119 = getelementptr [8 x i8], ptr %24, i64 0, i64 5
  store i8 %118, ptr %119, align 1
  %120 = getelementptr inbounds nuw %struct.blf_linmessage2, ptr %20, i32 0, i32 2
  %121 = load i16, ptr %120, align 8
  %122 = zext i16 %121 to i32
  %123 = and i32 %122, 255
  %124 = trunc i32 %123 to i8
  %125 = getelementptr [8 x i8], ptr %24, i64 0, i64 6
  store i8 %124, ptr %125, align 1
  %126 = getelementptr [8 x i8], ptr %24, i64 0, i64 7
  store i8 0, ptr %126, align 1
  %127 = load ptr, ptr %11, align 8
  %128 = getelementptr inbounds nuw %struct.blf_params, ptr %127, i32 0, i32 1
  %129 = load ptr, ptr %128, align 8
  %130 = getelementptr inbounds nuw %struct.wtap_rec, ptr %129, i32 0, i32 11
  %131 = getelementptr inbounds [8 x i8], ptr %24, i64 0, i64 0
  call void @ws_buffer_append(ptr noundef %130, ptr noundef %131, i64 noundef 8)
  %132 = load ptr, ptr %11, align 8
  %133 = getelementptr inbounds nuw %struct.blf_params, ptr %132, i32 0, i32 1
  %134 = load ptr, ptr %133, align 8
  %135 = getelementptr inbounds nuw %struct.wtap_rec, ptr %134, i32 0, i32 11
  %136 = getelementptr inbounds nuw %struct.blf_linmessage2, ptr %20, i32 0, i32 1
  %137 = getelementptr inbounds [8 x i8], ptr %136, i64 0, i64 0
  %138 = load i8, ptr %21, align 1
  %139 = zext i8 %138 to i64
  call void @ws_buffer_append(ptr noundef %135, ptr noundef %137, i64 noundef %139)
  %140 = load i8, ptr %21, align 1
  %141 = zext i8 %140 to i64
  %142 = add i64 8, %141
  %143 = trunc i64 %142 to i32
  store i32 %143, ptr %22, align 4
  %144 = load ptr, ptr %11, align 8
  %145 = load i32, ptr %17, align 4
  %146 = load i64, ptr %18, align 8
  %147 = getelementptr inbounds nuw %struct.blf_linmessage2, ptr %20, i32 0, i32 0
  %148 = getelementptr inbounds nuw %struct.blf_lindatabytetimestampevent, ptr %147, i32 0, i32 0
  %149 = getelementptr inbounds nuw %struct.blf_linmessagedescriptor, ptr %148, i32 0, i32 0
  %150 = getelementptr inbounds nuw %struct.blf_linsynchfieldevent, ptr %149, i32 0, i32 0
  %151 = getelementptr inbounds nuw %struct.blf_linbusevent, ptr %150, i32 0, i32 2
  %152 = load i16, ptr %151, align 4
  %153 = load i32, ptr %22, align 4
  %154 = load i32, ptr %22, align 4
  call void @blf_init_rec(ptr noundef %144, i32 noundef %145, i64 noundef %146, i32 noundef 107, i16 noundef zeroext %152, i16 noundef zeroext -1, i32 noundef %153, i32 noundef %154)
  %155 = load ptr, ptr %11, align 8
  %156 = getelementptr inbounds nuw %struct.blf_linmessage2, ptr %20, i32 0, i32 3
  %157 = load i8, ptr %156, align 2
  %158 = zext i8 %157 to i16
  call void @blf_add_direction_option(ptr noundef %155, i16 noundef zeroext %158)
  store i1 true, ptr %10, align 1
  store i32 1, ptr %23, align 4
  call void @llvm.lifetime.end.p0(i64 8, ptr %24) #13
  br label %159

159:                                              ; preds = %114, %47, %37
  call void @llvm.lifetime.end.p0(i64 4, ptr %22) #13
  call void @llvm.lifetime.end.p0(i64 1, ptr %21) #13
  call void @llvm.lifetime.end.p0(i64 136, ptr %20) #13
  %160 = load i1, ptr %10, align 1
  ret i1 %160
}