; Function Attrs: null_pointer_is_valid sspstrong uwtable
define internal fastcc noundef zeroext i1 @blf_read_linmessage2(ptr noundef readonly captures(none) %0, ptr noundef %1, ptr noundef %2, i64 noundef %3, i64 noundef %4, i64 noundef range(i64 0, 4294967296) %5, i32 noundef %6, i64 noundef %7, i16 noundef zeroext %8) unnamed_addr #2 {
  %10 = alloca %struct.blf_linmessage2, align 8
  %11 = alloca [8 x i8], align 1
  call void @llvm.lifetime.start.p0(i64 136, ptr nonnull %10) #14
  %reass.sub = sub i64 %4, %3
  %12 = add i64 %reass.sub, 136
  %13 = icmp slt i64 %5, %12
  br i1 %13, label %14, label %16

14:                                               ; preds = %9
  store i32 -13, ptr %1, align 4
  %15 = tail call noalias ptr @wmem_strdup(ptr noundef null, ptr noundef nonnull @.str.78)
  store ptr %15, ptr %2, align 8
  br label %blf_read_bytes.exit.thread

16:                                               ; preds = %9
  %17 = call fastcc zeroext i1 @blf_read_bytes_or_eof(ptr noundef readonly %0, i64 noundef %4, ptr noundef nonnull %10, i64 noundef 136, ptr noundef %1, ptr noundef %2)
  br i1 %17, label %blf_read_bytes.exit, label %18

18:                                               ; preds = %16
  %19 = load i32, ptr %1, align 4
  %20 = icmp eq i32 %19, 0
  br i1 %20, label %21, label %blf_read_bytes.exit.thread

21:                                               ; preds = %18
  store i32 -12, ptr %1, align 4
  br label %blf_read_bytes.exit.thread

blf_read_bytes.exit:                              ; preds = %16
  %22 = getelementptr inbounds nuw i8, ptr %10, i64 38
  %23 = load i8, ptr %22, align 2
  %24 = and i8 %23, 15
  store i8 %24, ptr %22, align 2
  %25 = getelementptr inbounds nuw i8, ptr %10, i64 37
  %26 = load i8, ptr %25, align 1
  %27 = and i8 %26, 63
  store i8 %27, ptr %25, align 1
  %28 = call i8 @llvm.umin.i8(i8 %24, i8 8)
  call void @llvm.lifetime.start.p0(i64 8, ptr nonnull %11) #14
  store i8 1, ptr %11, align 1
  %29 = getelementptr inbounds nuw i8, ptr %11, i64 1
  store i8 0, ptr %29, align 1
  %30 = getelementptr inbounds nuw i8, ptr %11, i64 2
  store i8 0, ptr %30, align 1
  %31 = getelementptr inbounds nuw i8, ptr %11, i64 3
  store i8 0, ptr %31, align 1
  %32 = shl nuw i8 %24, 4
  %33 = getelementptr inbounds nuw i8, ptr %11, i64 4
  store i8 %32, ptr %33, align 1
  %.not = icmp eq i16 %8, 0
  br i1 %.not, label %39, label %34

34:                                               ; preds = %blf_read_bytes.exit
  %35 = getelementptr inbounds nuw i8, ptr %10, i64 39
  %36 = load i8, ptr %35, align 1
  switch i8 %36, label %39 [
    i8 0, label %.sink.split
    i8 1, label %37
  ]

37:                                               ; preds = %34
  br label %.sink.split

.sink.split:                                      ; preds = %34, %37
  %.sink20 = phi i8 [ 2, %37 ], [ 1, %34 ]
  %38 = or disjoint i8 %32, %.sink20
  store i8 %38, ptr %33, align 1
  br label %39

39:                                               ; preds = %.sink.split, %34, %blf_read_bytes.exit
  %40 = getelementptr inbounds nuw i8, ptr %11, i64 5
  store i8 %27, ptr %40, align 1
  %41 = getelementptr inbounds nuw i8, ptr %10, i64 120
  %42 = load i16, ptr %41, align 8
  %43 = trunc i16 %42 to i8
  %44 = getelementptr inbounds nuw i8, ptr %11, i64 6
  store i8 %43, ptr %44, align 1
  %45 = getelementptr inbounds nuw i8, ptr %11, i64 7
  store i8 0, ptr %45, align 1
  %46 = getelementptr inbounds nuw i8, ptr %0, i64 8
  %47 = load ptr, ptr %46, align 8
  %48 = getelementptr inbounds nuw i8, ptr %47, i64 280
  call void @ws_buffer_append(ptr noundef nonnull %48, ptr noundef nonnull %11, i64 noundef 8)
  %49 = load ptr, ptr %46, align 8
  %50 = getelementptr inbounds nuw i8, ptr %49, i64 280
  %51 = getelementptr inbounds nuw i8, ptr %10, i64 112
  %52 = zext nneg i8 %28 to i64
  call void @ws_buffer_append(ptr noundef nonnull %50, ptr noundef nonnull %51, i64 noundef %52)
  %narrow = add nuw nsw i8 %28, 8
  %53 = zext nneg i8 %narrow to i32
  %54 = getelementptr inbounds nuw i8, ptr %10, i64 12
  %55 = load i16, ptr %54, align 4
  call fastcc void @blf_init_rec(ptr noundef %0, i32 noundef %6, i64 noundef %7, i32 noundef 107, i16 noundef zeroext %55, i16 noundef zeroext -1, i32 noundef %53, i32 noundef %53)
  %56 = getelementptr inbounds nuw i8, ptr %10, i64 122
  %57 = load i8, ptr %56, align 2
  %58 = icmp ult i8 %57, 3
  br i1 %58, label %switch.lookup, label %blf_add_direction_option.exit

switch.lookup:                                    ; preds = %39
  %59 = zext nneg i8 %57 to i64
  %switch.gep = getelementptr inbounds nuw [3 x i32], ptr @switch.table.blf_read_lincrcerror2, i64 0, i64 %59
  %switch.load = load i32, ptr %switch.gep, align 4
  br label %blf_add_direction_option.exit

blf_add_direction_option.exit:                    ; preds = %switch.lookup, %39
  %.0.i = phi i32 [ 0, %39 ], [ %switch.load, %switch.lookup ]
  %60 = load ptr, ptr %46, align 8
  %61 = getelementptr inbounds nuw i8, ptr %60, i64 232
  %62 = load ptr, ptr %61, align 8
  %63 = call i32 @wtap_block_add_uint32_option(ptr noundef %62, i32 noundef 2, i32 noundef %.0.i)
  call void @llvm.lifetime.end.p0(i64 8, ptr nonnull %11) #14
  br label %blf_read_bytes.exit.thread

blf_read_bytes.exit.thread:                       ; preds = %21, %18, %blf_add_direction_option.exit, %14
  %.0 = phi i1 [ false, %14 ], [ true, %blf_add_direction_option.exit ], [ false, %18 ], [ false, %21 ]
  call void @llvm.lifetime.end.p0(i64 136, ptr nonnull %10) #14
  ret i1 %.0
}